(dp1
S'output'
p2
S"<type 'exceptions.TypeError'> string indices must be integers, not str"
p3
sS'layer'
p4
S'C:\\Users\\Megan\\Documents\\web2py_win\\web2py\\applications\\Mutate\\controllers/projectmutation.py'
p5
sS'code'
p6
S"__author__ = 'Megan'\n\nimport glob\nimport os\n\n\n\n@auth.requires_login(otherwise=URL('default','login.html'))\ndef results():\n    task_id=request.args(0)\n    task=db(db.scheduler_task.id==int(task_id)).select().first()\n    no_of_projects = task.vars['number_of_projects']\n    results=H1(str(no_of_projects))\n    return dict(results=results)\n\ndef currentsearches():\n    return dict(dict=dict)\nresponse._vars=response._caller(results)\n"
p7
sS'snapshot'
p8
(dp9
sS'traceback'
p10
S'Traceback (most recent call last):\n  File "gluon/restricted.py", line 224, in restricted\n  File "C:\\Users\\Megan\\Documents\\web2py_win\\web2py\\applications\\Mutate\\controllers/projectmutation.py", line 18, in <module>\n  File "gluon/globals.py", line 392, in <lambda>\n  File "gluon/tools.py", line 3439, in f\n  File "C:\\Users\\Megan\\Documents\\web2py_win\\web2py\\applications\\Mutate\\controllers/projectmutation.py", line 12, in results\n    no_of_projects = task.vars[\'number_of_projects\']\nTypeError: string indices must be integers, not str\n'
p11
s.