(dp1
S'output'
p2
S"<type 'exceptions.TypeError'> cannot concatenate 'str' and 'int' objects"
p3
sS'layer'
p4
S'C:\\Users\\Megan\\Documents\\web2py_win\\web2py\\applications\\Mutate\\controllers/projectmutation.py'
p5
sS'code'
p6
S'__author__ = \'Megan\'\n\nimport glob\nimport os\nimport ast\n\nCLONED_REPOS_PATH = "applications/Mutate/models/testinggithubapi/clonedrepos"\n\n\n@auth.requires_login(otherwise=URL(\'default\',\'login.html\'))\ndef results():\n    task_id=request.args(0)\n    task=db(db.scheduler_task.id==int(task_id)).select().first()\n    no_of_projects = task.vars.split(",")[5].split(":")[1]\n\n    current_number_of_projects_downloaded = 0\n\n    for files in os.walk(CLONED_REPOS_PATH):\n        current_number_of_projects_downloaded = len(map(int, files[1]))-1\n        break\n\n    results = H1(\'Searching for \'+current_number_of_projects_downloaded+\' of \' + no_of_projects + \' projects.\')\n    return dict(results=results)\n\ndef currentsearches():\n    return dict(dict=dict)\nresponse._vars=response._caller(results)\n'
p7
sS'snapshot'
p8
(dp9
sS'traceback'
p10
S'Traceback (most recent call last):\n  File "gluon/restricted.py", line 224, in restricted\n  File "C:\\Users\\Megan\\Documents\\web2py_win\\web2py\\applications\\Mutate\\controllers/projectmutation.py", line 27, in <module>\n  File "gluon/globals.py", line 392, in <lambda>\n  File "gluon/tools.py", line 3439, in f\n  File "C:\\Users\\Megan\\Documents\\web2py_win\\web2py\\applications\\Mutate\\controllers/projectmutation.py", line 22, in results\n    results = H1(\'Searching for \'+current_number_of_projects_downloaded+\' of \' + no_of_projects + \' projects.\')\nTypeError: cannot concatenate \'str\' and \'int\' objects\n'
p11
s.