(dp1
S'output'
p2
S"<type 'exceptions.SyntaxError'> invalid syntax (scheduler.py, line 10)"
p3
sS'layer'
p4
S'C:\\Users\\Megan\\Documents\\web2py_win\\web2py\\applications\\Mutate\\models\\scheduler.py'
p5
sS'code'
p6
S'import applications.Mutate.models.testinggithubapi.findProjects as findProjects\n\n\ndef find_projects_task(keyword, maxsize, minsize, language, sortby,\n                      orderby, number_of_projects, username, token):\n    print "Hello"\n    find = findProjects.FindProjects()\n\n    task = db((db.scheduler_task.status != \'FAILED\') &\n              (db.scheduler_task.vars == str(dict("keyword":keyword, maxsize=maxsize, minsize=minsize, language=language,\n                                              sortby=sortby,orderby=orderby, number_of_projects=number_of_projects,\n                                              username=username, token=token)))).select().last().id\n    find.search_github(keyword, maxsize, minsize, language, sortby,\n                      orderby, number_of_projects, username, token, task)\n\n    return dict(result="done")\n\nfrom gluon.scheduler import Scheduler\n\nscheduler = Scheduler(db, tasks=dict(findProjects=find_projects_task))\n'
p7
sS'snapshot'
p8
(dp9
sS'traceback'
p10
S'Traceback (most recent call last):\n  File "gluon/restricted.py", line 223, in restricted\n  File "gluon/restricted.py", line 206, in compile2\n  File "C:\\Users\\Megan\\Documents\\web2py_win\\web2py\\applications\\Mutate\\models\\scheduler.py", line 10\n    (db.scheduler_task.vars == str(dict("keyword":keyword, maxsize=maxsize, minsize=minsize, language=language,\n                                                 ^\nSyntaxError: invalid syntax\n'
p11
s.