(dp1
S'output'
p2
S"<type 'exceptions.ValueError'> malformed string"
p3
sS'layer'
p4
S'C:\\Users\\Megan\\Documents\\web2py_win\\web2py\\applications\\Mutate\\controllers/projectmutation.py'
p5
sS'code'
p6
S'__author__ = \'Megan\'\n\nimport glob\nimport os\nimport ast\n\n\n@auth.requires_login(otherwise=URL(\'default\',\'login.html\'))\ndef results():\n    task_id=request.args(0)\n    task=db(db.scheduler_task.id==int(task_id)).select().first()\n    var_dict = ast.literal_eval(task.vars.replace("\\"","\\\'").replace(\'\\\'\\\'\',\'\\\'None\\\'\'))\n    #no_of_projects = var_dict["number_of_projects"]\n    results=H1()\n    #results=H1(no_of_projects)\n    return dict(results=results)\n\ndef currentsearches():\n    return dict(dict=dict)\nresponse._vars=response._caller(results)\n'
p7
sS'snapshot'
p8
(dp9
sS'traceback'
p10
S'Traceback (most recent call last):\n  File "gluon/restricted.py", line 224, in restricted\n  File "C:\\Users\\Megan\\Documents\\web2py_win\\web2py\\applications\\Mutate\\controllers/projectmutation.py", line 20, in <module>\n  File "gluon/globals.py", line 392, in <lambda>\n  File "gluon/tools.py", line 3439, in f\n  File "C:\\Users\\Megan\\Documents\\web2py_win\\web2py\\applications\\Mutate\\controllers/projectmutation.py", line 12, in results\n    var_dict = ast.literal_eval(task.vars.replace("\\"","\\\'").replace(\'\\\'\\\'\',\'\\\'None\\\'\'))\n  File "ast.py", line 80, in literal_eval\n  File "ast.py", line 63, in _convert\n  File "ast.py", line 62, in <genexpr>\n  File "ast.py", line 79, in _convert\nValueError: malformed string\n'
p11
s.