(dp1
S'output'
p2
S"<type 'exceptions.NameError'> name 'redirect_notice' is not defined"
p3
sS'layer'
p4
S'C:\\Users\\Megan\\Documents\\web2py_win\\web2py\\applications\\Mutate\\views\\default/mutateprojects.html'
p5
sS'code'
p6
S'response.write(\'<!DOCTYPE html>\\n<html lang="en">\\n<head>\\n    <meta charset="utf-8">\\n    <meta http-equiv="X-UA-Compatible" content="IE=edge,chrome=1">\\n    <title>Mutate</title>\\n    \', escape=False)\nresponse.write(\'<script type="text/javascript"><!--\\n    // These variables are used by the web2py_ajax_init function in web2py_ajax.js (which is loaded below).\\n    var w2p_ajax_confirm_message = "\', escape=False)\nresponse.write(T(\'Are you sure you want to delete this object?\'))\nresponse.write(\'";\\n    var w2p_ajax_disable_with_message = "\', escape=False)\nresponse.write(T(\'Working...\'))\nresponse.write(\'";\\n    var w2p_ajax_date_format = "\', escape=False)\nresponse.write(T(\'%Y-%m-%d\'))\nresponse.write(\'";\\n    var w2p_ajax_datetime_format = "\', escape=False)\nresponse.write(T(\'%Y-%m-%d %H:%M:%S\'))\nresponse.write(\'";\\n    var ajax_error_500 = \\\'\', escape=False)\nresponse.write(T.M(\'An error occured, please [[reload %s]] the page\') % URL(args=request.args, vars=request.get_vars))\nresponse.write("\'\\n    //--></script>\\n", escape=False)\nresponse.files.insert(0,URL(\'static\',\'js/jquery.js\'))\nresponse.files.insert(1,URL(\'static\',\'css/calendar.css\'))\nresponse.files.insert(2,URL(\'static\',\'js/calendar.js\'))\nresponse.files.insert(3,URL(\'static\',\'js/web2py.js\'))\nresponse.include_meta()\nresponse.include_files()\nresponse.write(\'\\n\', escape=False)\nresponse.write(\'\\n    <meta name="description" content="">\\n    <link rel ="stylesheet" type ="text/css" href="\', escape=False)\nresponse.write(URL(\'static\',\'css/bootstrap.min.css\'))\nresponse.write(\'"  media="screen" >\\n    <link rel ="stylesheet" type ="text/css" href="\', escape=False)\nresponse.write(URL(\'static\',\'css/bootstrap-responsive.min.css\'))\nresponse.write(\'"  media="screen" >\\n    <link rel ="stylesheet" type ="text/css" href="\', escape=False)\nresponse.write(URL(\'static\',\'css/web2py_bootstrap.css\'))\nresponse.write(\'"  media="screen" >\\n    <link rel="stylesheet" type="text/css" href="\', escape=False)\nresponse.write(URL(\'static\',\'css/mutate.css\'))\nresponse.write(\'" media="screen" >\\n    <script type="text/javascript" src="\', escape=False)\nresponse.write(URL(\'static\',\'js/jquery.js\'))\nresponse.write(\'"></script>\\n    <script type="text/javascript" src="\', escape=False)\nresponse.write(URL(\'static\',\'js/bootstrap.min.js\'))\nresponse.write(\'"></script>\\n    <script type="text/javascript" src="\', escape=False)\nresponse.write(URL(\'static\',\'js/web2py.js\'))\nresponse.write(\'"></script>\\n</head>\\n<body>\\n<div class="container" id="main-wrapper">\\n    <header class="row">\\n        <div class="span12">\\n            <nav class="navbar navbar-fixed-top">\\n                <div class="navbar-inner">\\n                    <div class="container">\\n                        <div class="nav-collapse collapse">\\n                            <ul class="nav pull-right">\\n                                 <li><a href ="\', escape=False)\nresponse.write(URL(\'default\', \'mutateprojects.html\'))\nresponse.write(\'">mutate projects</a></li>\\n                                <li class="divider-vertical"></li>\\n                                <li><a href ="\', escape=False)\nresponse.write(URL(\'default\', \'about.html\'))\nresponse.write(\'">about</a></li>\\n                                <li class="divider-vertical" ></li>\\n                                \', escape=False)\nif auth.is_logged_in():\n    response.write(\'\\n                                <li><a href=\', escape=False)\n    response.write(URL(\'default\',\'user/logout\'))\n    response.write(\'>logout</a></li>\\n                                <li class="divider-vertical" ></li>\\n                                <li><a href ="\', escape=False)\n    response.write(URL(\'default\',\'currentsearches.html\'))\n    response.write(\'">current searches</a></li>\\n                                \', escape=False)\nelse:\n    response.write(\'\\n                                <li><a href ="\', escape=False)\n    response.write(URL(\'default\',\'login.html\'))\n    response.write(\'">login</a></li>\\n                                <li class="divider-vertical" ></li>\\n                                <li><a href ="\', escape=False)\n    response.write(URL(\'default\',\'register.html\'))\n    response.write(\'">register</a></li>\\n\\n                                \', escape=False)\n    pass\nresponse.write(\'\\n                            </ul>\\n                        </div>\\n                    </div>\\n                </div>\\n            </nav>\\n        </div>\\n    </header>\\n\\n\\n    <div class="row below-nav" id="main-content">\\n        <div class="span12">\\n            \', escape=False)\nresponse.write(\'\\n\\n<div class="span12">\\n    \', escape=False)\nif redirect_notice is None:\n    response.write(\'\\n    MUTATE PROJECTS\\n    \', escape=False)\n    response.write(form)\n    response.write(\'\\n    \', escape=False)\nelse:\n    response.write(\'\\n    \', escape=False)\n    response.write(redirect_notice)\n    response.write(\'\\n    \', escape=False)\n    pass\nresponse.write(\'\\n</div>\\n\\n\', escape=False)\nresponse.write(\'\\n            \', escape=False)\npass\nresponse.write(\'\\n        </div>\\n    </div>\\n\\n    <footer class="row">\\n    </footer>\\n\\n</div>\\n\\n</body>\\n</html>\', escape=False)'
p7
sS'snapshot'
p8
(dp9
sS'traceback'
p10
S'Traceback (most recent call last):\n  File "gluon/restricted.py", line 224, in restricted\n  File "C:\\Users\\Megan\\Documents\\web2py_win\\web2py\\applications\\Mutate\\views\\default/mutateprojects.html", line 54, in <module>\nNameError: name \'redirect_notice\' is not defined\n'
p11
s.