(dp1
S'output'
p2
S"<type 'exceptions.SyntaxError'> Set: no tables selected"
p3
sS'layer'
p4
S'C:\\Users\\Megan\\Documents\\web2py_win\\web2py\\applications\\Mutate\\controllers/projectmutation.py'
p5
sS'code'
p6
S"__author__ = 'Megan'\n\nimport glob\nimport os\n\n\n\n@auth.requires_login(otherwise=URL('default','login.html'))\ndef results():\n    task_id=request.args(0)\n    task=db(db.scheduler_task==task_id).select().first()\n    no_of_projects = task.vars['number_of_projects']\n    results=H1(str(no_of_projects))\n    return dict(results=results)\n\ndef currentsearches():\n    return dict(dict=dict)\nresponse._vars=response._caller(results)\n"
p7
sS'snapshot'
p8
(dp9
sS'traceback'
p10
S'Traceback (most recent call last):\n  File "gluon/restricted.py", line 224, in restricted\n  File "C:\\Users\\Megan\\Documents\\web2py_win\\web2py\\applications\\Mutate\\controllers/projectmutation.py", line 18, in <module>\n  File "gluon/globals.py", line 392, in <lambda>\n  File "gluon/tools.py", line 3439, in f\n  File "C:\\Users\\Megan\\Documents\\web2py_win\\web2py\\applications\\Mutate\\controllers/projectmutation.py", line 11, in results\n    task=db(db.scheduler_task==task_id).select().first()\n  File "gluon/dal.py", line 10749, in select\n  File "gluon/dal.py", line 2472, in select\n  File "gluon/dal.py", line 1868, in select\n  File "gluon/dal.py", line 1697, in _select\nSyntaxError: Set: no tables selected\n'
p11
s.